Certificate:
    Data:
        Version: 1 (0x0)
        Serial Number:
            02:ad:66:7e:4e:45:fe:5e:57:6f:3c:98:19:5e:dd:c0
        Signature Algorithm: md2WithRSAEncryption
        Issuer: C=US, O=RSA Data Security, Inc., OU=Secure Server Certification Authority
        Validity
            Not Before: Nov  9 00:00:00 1994 GMT
            Not After : Jan  7 23:59:59 2010 GMT
        Subject: C=US, O=RSA Data Security, Inc., OU=Secure Server Certification Authority
        Subject Public Key Info:
            Public Key Algorithm: rsaEncryption
            RSA Public Key: (1000 bit)
                Modulus (1000 bit):
                    00:92:ce:7a:c1:ae:83:3e:5a:aa:89:83:57:ac:25:
                    01:76:0c:ad:ae:8e:2c:37:ce:eb:35:78:64:54:03:
                    e5:84:40:51:c9:bf:8f:08:e2:8a:82:08:d2:16:86:
                    37:55:e9:b1:21:02:ad:76:68:81:9a:05:a2:4b:c9:
                    4b:25:66:22:56:6c:88:07:8f:f7:81:59:6d:84:07:
                    65:70:13:71:76:3e:9b:77:4c:e3:50:89:56:98:48:
                    b9:1d:a7:29:1a:13:2e:4a:11:59:9c:1e:15:d5:49:
                    54:2c:73:3a:69:82:b1:97:39:9c:6d:70:67:48:e5:
                    dd:2d:d6:c8:1e:7b
                Exponent: 65537 (0x10001)
    Signature Algorithm: md2WithRSAEncryption
        65:dd:7e:e1:b2:ec:b0:e2:3a:e0:ec:71:46:9a:19:11:b8:d3:
        c7:a0:b4:03:40:26:02:3e:09:9c:e1:12:b3:d1:5a:f6:37:a5:
        b7:61:03:b6:5b:16:69:3b:c6:44:08:0c:88:53:0c:6b:97:49:
        c7:3e:35:dc:6c:b9:bb:aa:df:5c:bb:3a:2f:93:60:b6:a9:4b:
        4d:f2:20:f7:cd:5f:7f:64:7b:8e:dc:00:5c:d7:fa:77:ca:39:
        16:59:6f:0e:ea:d3:b5:83:7f:4d:4d:42:56:76:b4:c9:5f:04:
        f8:38:f8:eb:d2:5f:75:5f:cd:7b:fc:e5:8e:80:7c:fc:50
-----BEGIN CERTIFICATE-----
MIICNDCCAaECEAKtZn5ORf5eV288mBle3cAwDQYJKoZIhvcNAQECBQAwXzELMAkG
A1UEBhMCVVMxIDAeBgNVBAoTF1JTQSBEYXRhIFNlY3VyaXR5LCBJbmMuMS4wLAYD
VQQLEyVTZWN1cmUgU2VydmVyIENlcnRpZmljYXRpb24gQXV0aG9yaXR5MB4XDTk0
MTEwOTAwMDAwMFoXDTEwMDEwNzIzNTk1OVowXzELMAkGA1UEBhMCVVMxIDAeBgNV
BAoTF1JTQSBEYXRhIFNlY3VyaXR5LCBJbmMuMS4wLAYDVQQLEyVTZWN1cmUgU2Vy
dmVyIENlcnRpZmljYXRpb24gQXV0aG9yaXR5MIGbMA0GCSqGSIb3DQEBAQUAA4GJ
ADCBhQJ+AJLOesGugz5aqomDV6wlAXYMra6OLDfO6zV4ZFQD5YRAUcm/jwjiioII
0haGN1XpsSECrXZogZoFokvJSyVmIlZsiAeP94FZbYQHZXATcXY+m3dM41CJVphI
uR2nKRoTLkoRWZweFdVJVCxzOmmCsZc5nG1wZ0jl3S3WyB57AgMBAAEwDQYJKoZI
hvcNAQECBQADfgBl3X7hsuyw4jrg7HFGmhkRuNPHoLQDQCYCPgmc4RKz0Vr2N6W3
YQO2WxZpO8ZECAyIUwxrl0nHPjXcbLm7qt9cuzovk2C2qUtN8iD3zV9/ZHuO3ABc
1/p3yjkWWW8O6tO1g39NTUJWdrTJXwT4OPjr0l91X817/OWOgHz8UA==
-----END CERTIFICATE-----
Certificate:
    Data:
        Version: 1 (0x0)
        Serial Number:
            52:a9:f4:24:da:67:4c:9d:af:4f:53:78:52:ab:ef:6e
        Signature Algorithm: md5WithRSAEncryption
        Issuer: O=VeriSign, Inc, OU=www.verisign.com/repository/TestCPS Incorp. By Ref. Liab. LTD., OU=For VeriSign authorized testing only. No assurances (C)VS1997
        Validity
            Not Before: Jun  7 00:00:00 1998 GMT
            Not After : Jun  6 23:59:59 2006 GMT
        Subject: O=VeriSign, Inc, OU=www.verisign.com/repository/TestCPS Incorp. By Ref. Liab. LTD., OU=For VeriSign authorized testing only. No assurances (C)VS1997
        Subject Public Key Info:
            Public Key Algorithm: rsaEncryption
            RSA Public Key: (512 bit)
                Modulus (512 bit):
                    00:c6:a4:eb:12:26:27:1e:38:8c:c2:9c:6e:40:02:
                    cb:9f:c2:c8:c0:36:7e:a5:ca:e0:f9:73:4e:d0:b1:
                    46:ae:6d:16:40:f3:9d:ee:ec:70:8f:28:14:af:c9:
                    fa:01:59:34:4d:db:8e:27:43:c5:fd:3b:3b:72:4e:
                    60:6f:51:1b:1f
                Exponent: 65537 (0x10001)
    Signature Algorithm: md5WithRSAEncryption
        a5:a7:47:f2:8f:37:10:a0:96:94:cf:e6:7c:db:a3:e4:02:22:
        49:ac:08:f8:d3:08:c9:ef:9b:b2:9c:c0:32:60:b9:a1:30:92:
        88:b5:80:14:98:f5:b8:89:a7:da:0a:f9:cb:f5:62:7d:ca:b9:
        53:3e:62:9b:5c:59:72:df:c7:12
-----BEGIN CERTIFICATE-----
MIICTTCCAfcCEFKp9CTaZ0ydr09TeFKr724wDQYJKoZIhvcNAQEEBQAwgakxFjAU
BgNVBAoTDVZlcmlTaWduLCBJbmMxRzBFBgNVBAsTPnd3dy52ZXJpc2lnbi5jb20v
cmVwb3NpdG9yeS9UZXN0Q1BTIEluY29ycC4gQnkgUmVmLiBMaWFiLiBMVEQuMUYw
RAYDVQQLEz1Gb3IgVmVyaVNpZ24gYXV0aG9yaXplZCB0ZXN0aW5nIG9ubHkuIE5v
IGFzc3VyYW5jZXMgKEMpVlMxOTk3MB4XDTk4MDYwNzAwMDAwMFoXDTA2MDYwNjIz
NTk1OVowgakxFjAUBgNVBAoTDVZlcmlTaWduLCBJbmMxRzBFBgNVBAsTPnd3dy52
ZXJpc2lnbi5jb20vcmVwb3NpdG9yeS9UZXN0Q1BTIEluY29ycC4gQnkgUmVmLiBM
aWFiLiBMVEQuMUYwRAYDVQQLEz1Gb3IgVmVyaVNpZ24gYXV0aG9yaXplZCB0ZXN0
aW5nIG9ubHkuIE5vIGFzc3VyYW5jZXMgKEMpVlMxOTk3MFwwDQYJKoZIhvcNAQEB
BQADSwAwSAJBAMak6xImJx44jMKcbkACy5/CyMA2fqXK4PlzTtCxRq5tFkDzne7s
cI8oFK/J+gFZNE3bjidDxf07O3JOYG9RGx8CAwEAATANBgkqhkiG9w0BAQQFAANB
AKWnR/KPNxCglpTP5nzbo+QCIkmsCPjTCMnvm7KcwDJguaEwkoi1gBSY9biJp9oK
+cv1Yn3KuVM+YptcWXLfxxI=
-----END CERTIFICATE-----
Certificate:
    Data:
        Version: 3 (0x2)
        Serial Number: 1 (0x1)
        Signature Algorithm: md5WithRSAEncryption
        Issuer: C=CN, O=zyxel, CN=gridserver.zyxel.cn
        Validity
            Not Before: Nov 29 08:30:35 2005 GMT
            Not After : Nov 27 08:30:35 2015 GMT
        Subject: C=CN, O=zyxel, CN=gridserver.zyxel.cn
        Subject Public Key Info:
            Public Key Algorithm: rsaEncryption
            RSA Public Key: (2048 bit)
                Modulus (2048 bit):
                    00:8b:5d:a3:5c:2c:99:13:0e:e5:d1:62:76:96:5d:
                    6e:00:57:94:9e:0e:09:02:18:ee:92:46:a4:5c:84:
                    55:8c:26:c1:ae:11:43:33:56:dc:c0:0d:39:4b:e4:
                    eb:0d:6d:7d:e8:58:8b:eb:b9:e7:70:e3:ba:61:77:
                    8b:10:3e:de:a3:1a:00:83:78:7b:1f:e5:fe:25:87:
                    a9:43:23:f4:8e:23:a5:a6:ba:cf:74:d6:02:54:df:
                    8b:ff:f9:ed:e7:22:67:da:a5:e7:76:ea:a7:27:e5:
                    ba:d0:30:99:b4:df:73:eb:ee:c1:12:a8:ec:0b:66:
                    9e:9c:d3:2b:87:ea:0d:f2:16:50:5b:08:44:ee:28:
                    f9:29:da:2d:6d:bb:aa:af:4d:77:ed:47:e9:2c:7f:
                    97:60:a4:1d:44:c8:10:32:5a:a8:d9:7e:c9:eb:95:
                    8c:f4:9c:b2:99:f8:e2:97:ef:6e:b6:c2:78:f7:d5:
                    83:d5:61:2c:d4:35:f3:db:ec:af:80:50:e2:46:e2:
                    b8:48:a3:06:b2:32:78:6b:20:e1:94:31:69:65:28:
                    20:9f:6c:2c:6c:17:db:ad:e1:c4:23:4f:93:85:0d:
                    95:24:65:5d:43:62:23:7b:ed:1c:5c:f6:c2:a3:35:
                    a9:28:ea:d3:d9:30:2c:40:df:6e:a1:dc:16:b5:40:
                    e3:61
                Exponent: 65537 (0x10001)
        X509v3 extensions:
            X509v3 Basic Constraints: critical
                CA:TRUE, pathlen:3
            X509v3 Key Usage: critical
                Certificate Sign, CRL Sign
    Signature Algorithm: md5WithRSAEncryption
        1d:91:78:4d:29:ab:a3:d7:37:70:00:59:7f:58:de:ba:1e:d6:
        dd:eb:d4:d8:1c:29:a0:8a:38:3b:c3:7f:20:6f:b4:9f:43:5d:
        d4:f9:6b:c4:07:ad:75:df:19:00:42:ea:be:f2:d6:d7:1f:86:
        2a:08:21:6c:ea:63:89:67:e6:a1:18:64:9c:28:26:fc:4b:6f:
        e1:78:d1:45:61:2d:88:01:f1:e9:df:1a:a2:0d:19:cb:20:af:
        7d:1a:7a:09:8b:71:16:63:78:9e:25:56:5f:15:fb:f3:fe:a8:
        83:66:63:36:c5:03:c1:5c:5a:67:b2:ac:a5:71:81:5b:79:e6:
        a6:02:40:c1:7c:db:33:a2:3f:e5:cf:ac:19:eb:5f:c4:cd:40:
        b5:25:c2:64:75:d9:1c:e5:dd:2b:0a:22:b7:c0:fb:7b:7e:81:
        0c:24:01:ef:92:96:de:5c:14:2c:f0:39:b1:59:66:2a:3e:75:
        4a:e1:a7:bb:38:8b:1d:d0:c9:58:ab:8f:67:a5:c2:84:eb:a0:
        71:f8:69:9c:0f:d6:78:f7:0c:16:f0:81:42:65:38:dc:56:1b:
        cd:64:02:d9:64:67:dc:fc:47:9b:e9:e1:e2:db:b7:07:d3:c7:
        6f:36:e6:1f:02:d7:d5:a1:e7:aa:c2:66:da:ec:6e:cd:0f:5a:
        f2:7a:cb:ed
-----BEGIN CERTIFICATE-----
MIIDGDCCAgCgAwIBAgIBATANBgkqhkiG9w0BAQQFADA7MQswCQYDVQQGEwJDTjEO
MAwGA1UEChMFenl4ZWwxHDAaBgNVBAMTE2dyaWRzZXJ2ZXIuenl4ZWwuY24wHhcN
MDUxMTI5MDgzMDM1WhcNMTUxMTI3MDgzMDM1WjA7MQswCQYDVQQGEwJDTjEOMAwG
A1UEChMFenl4ZWwxHDAaBgNVBAMTE2dyaWRzZXJ2ZXIuenl4ZWwuY24wggEiMA0G
CSqGSIb3DQEBAQUAA4IBDwAwggEKAoIBAQCLXaNcLJkTDuXRYnaWXW4AV5SeDgkC
GO6SRqRchFWMJsGuEUMzVtzADTlL5OsNbX3oWIvruedw47phd4sQPt6jGgCDeHsf
5f4lh6lDI/SOI6Wmus901gJU34v/+e3nImfaped26qcn5brQMJm033Pr7sESqOwL
Zp6c0yuH6g3yFlBbCETuKPkp2i1tu6qvTXftR+ksf5dgpB1EyBAyWqjZfsnrlYz0
nLKZ+OKX7262wnj31YPVYSzUNfPb7K+AUOJG4rhIowayMnhrIOGUMWllKCCfbCxs
F9ut4cQjT5OFDZUkZV1DYiN77Rxc9sKjNako6tPZMCxA326h3Ba1QONhAgMBAAGj
JzAlMBIGA1UdEwEB/wQIMAYBAf8CAQMwDwYDVR0PAQH/BAUDAwcGADANBgkqhkiG
9w0BAQQFAAOCAQEAHZF4TSmro9c3cABZf1jeuh7W3evU2BwpoIo4O8N/IG+0n0Nd
1PlrxAetdd8ZAELqvvLW1x+GKgghbOpjiWfmoRhknCgm/Etv4XjRRWEtiAHx6d8a
og0ZyyCvfRp6CYtxFmN4niVWXxX78/6og2ZjNsUDwVxaZ7KspXGBW3nmpgJAwXzb
M6I/5c+sGetfxM1AtSXCZHXZHOXdKwoit8D7e36BDCQB75KW3lwULPA5sVlmKj51
SuGnuziLHdDJWKuPZ6XChOugcfhpnA/WePcMFvCBQmU43FYbzWQC2WRn3PxHm+nh
4tu3B9PHbzbmHwLX1aHnqsJm2uxuzQ9a8nrL7Q==
-----END CERTIFICATE-----
